; ModuleID = '10/1670.c'
source_filename = "10/1670.c"
target datalayout = "e-m:e-p270:32:32-p271:32:32-p272:64:64-i64:64-f80:128-n8:16:32:64-S128"
target triple = "x86_64-pc-linux-gnu"

@.str = private unnamed_addr constant [3 x i8] c"%d\00", align 1
@.str.1 = private unnamed_addr constant [4 x i8] c"%d\0A\00", align 1

; Function Attrs: noinline nounwind uwtable
define dso_local void @main() #0 {
  %1 = alloca i32, align 4
  %2 = alloca [25 x i32], align 16
  %3 = alloca i32, align 4
  %4 = alloca i32, align 4
  %5 = alloca [25 x i32], align 16
  %6 = alloca i32, align 4
  %7 = alloca i32, align 4
  %8 = call i32 (i8*, ...) @__isoc99_scanf(i8* getelementptr inbounds ([3 x i8], [3 x i8]* @.str, i64 0, i64 0), i32* %1)
  store i32 0, i32* %3, align 4
  br label %9

9:                                                ; preds = %18, %0
  %10 = load i32, i32* %3, align 4
  %11 = load i32, i32* %1, align 4
  %12 = icmp slt i32 %10, %11
  br i1 %12, label %13, label %21

13:                                               ; preds = %9
  %14 = load i32, i32* %3, align 4
  %15 = sext i32 %14 to i64
  %16 = getelementptr inbounds [25 x i32], [25 x i32]* %2, i64 0, i64 %15
  %17 = call i32 (i8*, ...) @__isoc99_scanf(i8* getelementptr inbounds ([3 x i8], [3 x i8]* @.str, i64 0, i64 0), i32* %16)
  br label %18

18:                                               ; preds = %13
  %19 = load i32, i32* %3, align 4
  %20 = add nsw i32 %19, 1
  store i32 %20, i32* %3, align 4
  br label %9

21:                                               ; preds = %9
  %22 = load i32, i32* %1, align 4
  %23 = sub nsw i32 %22, 1
  %24 = sext i32 %23 to i64
  %25 = getelementptr inbounds [25 x i32], [25 x i32]* %5, i64 0, i64 %24
  store i32 1, i32* %25, align 4
  %26 = load i32, i32* %1, align 4
  %27 = sub nsw i32 %26, 2
  store i32 %27, i32* %3, align 4
  br label %28

28:                                               ; preds = %104, %21
  %29 = load i32, i32* %3, align 4
  %30 = icmp sge i32 %29, 0
  br i1 %30, label %31, label %107

31:                                               ; preds = %28
  %32 = load i32, i32* %3, align 4
  %33 = sext i32 %32 to i64
  %34 = getelementptr inbounds [25 x i32], [25 x i32]* %2, i64 0, i64 %33
  %35 = load i32, i32* %34, align 4
  %36 = load i32, i32* %3, align 4
  %37 = add nsw i32 %36, 1
  %38 = sext i32 %37 to i64
  %39 = getelementptr inbounds [25 x i32], [25 x i32]* %2, i64 0, i64 %38
  %40 = load i32, i32* %39, align 4
  %41 = call i32 @dert(i32 %35, i32 %40)
  %42 = load i32, i32* %3, align 4
  %43 = add nsw i32 %42, 1
  %44 = sext i32 %43 to i64
  %45 = getelementptr inbounds [25 x i32], [25 x i32]* %5, i64 0, i64 %44
  %46 = load i32, i32* %45, align 4
  %47 = mul nsw i32 %41, %46
  store i32 %47, i32* %6, align 4
  store i32 1, i32* %7, align 4
  br label %48

48:                                               ; preds = %95, %31
  %49 = load i32, i32* %7, align 4
  %50 = load i32, i32* %1, align 4
  %51 = load i32, i32* %3, align 4
  %52 = sub nsw i32 %50, %51
  %53 = icmp slt i32 %49, %52
  br i1 %53, label %54, label %98

54:                                               ; preds = %48
  %55 = load i32, i32* %6, align 4
  %56 = load i32, i32* %3, align 4
  %57 = sext i32 %56 to i64
  %58 = getelementptr inbounds [25 x i32], [25 x i32]* %2, i64 0, i64 %57
  %59 = load i32, i32* %58, align 4
  %60 = load i32, i32* %3, align 4
  %61 = load i32, i32* %7, align 4
  %62 = add nsw i32 %60, %61
  %63 = sext i32 %62 to i64
  %64 = getelementptr inbounds [25 x i32], [25 x i32]* %2, i64 0, i64 %63
  %65 = load i32, i32* %64, align 4
  %66 = call i32 @dert(i32 %59, i32 %65)
  %67 = load i32, i32* %3, align 4
  %68 = load i32, i32* %7, align 4
  %69 = add nsw i32 %67, %68
  %70 = sext i32 %69 to i64
  %71 = getelementptr inbounds [25 x i32], [25 x i32]* %5, i64 0, i64 %70
  %72 = load i32, i32* %71, align 4
  %73 = mul nsw i32 %66, %72
  %74 = icmp slt i32 %55, %73
  br i1 %74, label %75, label %94

75:                                               ; preds = %54
  %76 = load i32, i32* %3, align 4
  %77 = sext i32 %76 to i64
  %78 = getelementptr inbounds [25 x i32], [25 x i32]* %2, i64 0, i64 %77
  %79 = load i32, i32* %78, align 4
  %80 = load i32, i32* %3, align 4
  %81 = load i32, i32* %7, align 4
  %82 = add nsw i32 %80, %81
  %83 = sext i32 %82 to i64
  %84 = getelementptr inbounds [25 x i32], [25 x i32]* %2, i64 0, i64 %83
  %85 = load i32, i32* %84, align 4
  %86 = call i32 @dert(i32 %79, i32 %85)
  %87 = load i32, i32* %3, align 4
  %88 = load i32, i32* %7, align 4
  %89 = add nsw i32 %87, %88
  %90 = sext i32 %89 to i64
  %91 = getelementptr inbounds [25 x i32], [25 x i32]* %5, i64 0, i64 %90
  %92 = load i32, i32* %91, align 4
  %93 = mul nsw i32 %86, %92
  store i32 %93, i32* %6, align 4
  br label %94

94:                                               ; preds = %75, %54
  br label %95

95:                                               ; preds = %94
  %96 = load i32, i32* %7, align 4
  %97 = add nsw i32 %96, 1
  store i32 %97, i32* %7, align 4
  br label %48

98:                                               ; preds = %48
  %99 = load i32, i32* %6, align 4
  %100 = add nsw i32 %99, 1
  %101 = load i32, i32* %3, align 4
  %102 = sext i32 %101 to i64
  %103 = getelementptr inbounds [25 x i32], [25 x i32]* %5, i64 0, i64 %102
  store i32 %100, i32* %103, align 4
  br label %104

104:                                              ; preds = %98
  %105 = load i32, i32* %3, align 4
  %106 = add nsw i32 %105, -1
  store i32 %106, i32* %3, align 4
  br label %28

107:                                              ; preds = %28
  %108 = load i32, i32* %1, align 4
  %109 = sub nsw i32 %108, 1
  %110 = sext i32 %109 to i64
  %111 = getelementptr inbounds [25 x i32], [25 x i32]* %5, i64 0, i64 %110
  %112 = load i32, i32* %111, align 4
  store i32 %112, i32* %4, align 4
  %113 = load i32, i32* %1, align 4
  %114 = sub nsw i32 %113, 2
  store i32 %114, i32* %3, align 4
  br label %115

115:                                              ; preds = %131, %107
  %116 = load i32, i32* %3, align 4
  %117 = icmp sge i32 %116, 0
  br i1 %117, label %118, label %134

118:                                              ; preds = %115
  %119 = load i32, i32* %3, align 4
  %120 = sext i32 %119 to i64
  %121 = getelementptr inbounds [25 x i32], [25 x i32]* %5, i64 0, i64 %120
  %122 = load i32, i32* %121, align 4
  %123 = load i32, i32* %4, align 4
  %124 = icmp sgt i32 %122, %123
  br i1 %124, label %125, label %130

125:                                              ; preds = %118
  %126 = load i32, i32* %3, align 4
  %127 = sext i32 %126 to i64
  %128 = getelementptr inbounds [25 x i32], [25 x i32]* %5, i64 0, i64 %127
  %129 = load i32, i32* %128, align 4
  store i32 %129, i32* %4, align 4
  br label %130

130:                                              ; preds = %125, %118
  br label %131

131:                                              ; preds = %130
  %132 = load i32, i32* %3, align 4
  %133 = add nsw i32 %132, -1
  store i32 %133, i32* %3, align 4
  br label %115

134:                                              ; preds = %115
  %135 = load i32, i32* %4, align 4
  %136 = call i32 (i8*, ...) @printf(i8* getelementptr inbounds ([4 x i8], [4 x i8]* @.str.1, i64 0, i64 0), i32 %135)
  ret void
}

declare dso_local i32 @__isoc99_scanf(i8*, ...) #1

; Function Attrs: noinline nounwind uwtable
define dso_local i32 @dert(i32 %0, i32 %1) #0 {
  %3 = alloca i32, align 4
  %4 = alloca i32, align 4
  %5 = alloca i32, align 4
  store i32 %0, i32* %3, align 4
  store i32 %1, i32* %4, align 4
  %6 = load i32, i32* %3, align 4
  %7 = load i32, i32* %4, align 4
  %8 = icmp sge i32 %6, %7
  br i1 %8, label %9, label %10

9:                                                ; preds = %2
  store i32 1, i32* %5, align 4
  br label %11

10:                                               ; preds = %2
  store i32 0, i32* %5, align 4
  br label %11

11:                                               ; preds = %10, %9
  %12 = load i32, i32* %5, align 4
  ret i32 %12
}

declare dso_local i32 @printf(i8*, ...) #1


!llvm.module.flags = !{!0}
!llvm.ident = !{!1}

!0 = !{i32 1, !"wchar_size", i32 4}
!1 = !{!"clang version 10.0.0-4ubuntu1 "}
